target datalayout = "e-m:e-p270:32:32-p271:32:32-p272:64:64-i64:64-i128:128-f80:128-n8:16:32:64-S128"
target triple = "x86_64-pc-linux-gnu"

%struct.subset_d = type { ptr, i32 }

@enable_error_stack = external global i32, align 4
@H5tools_ERR_STACK_g = external global i64, align 8
@H5tools_ERR_CLS_g = external global i64, align 8
@.str.5 = private unnamed_addr constant [113 x i8] c"generated/home/dtcxzyw/WorkSpace/Projects/compilers/llvm-opt-benchmark/bench/hdf5/hdf5/tools/lib/h5tools_utils.c\00", align 1
@__func__.parse_hsize_list = private unnamed_addr constant [17 x i8] c"parse_hsize_list\00", align 1
@H5E_tools_g = external global i64, align 8
@H5E_tools_min_info_id_g = external global i64, align 8
@.str.6 = private unnamed_addr constant [41 x i8] c"Unable to allocate space for subset data\00", align 1
@stderr = external global ptr, align 8
@.str.7 = private unnamed_addr constant [2 x i8] c"\0A\00", align 1

; Function Attrs: nounwind uwtable
define void @parse_hsize_list(ptr noundef %0, ptr noundef %1) #0 {
  %3 = alloca ptr, align 8
  %4 = alloca ptr, align 8
  %5 = alloca ptr, align 8
  %6 = alloca ptr, align 8
  %7 = alloca i32, align 4
  %8 = alloca i32, align 4
  %9 = alloca i32, align 4
  store ptr %0, ptr %3, align 8
  store ptr %1, ptr %4, align 8
  store i32 0, ptr %7, align 4
  store i32 0, ptr %8, align 4
  store i32 0, ptr %9, align 4
  %10 = load ptr, ptr %3, align 8
  %11 = icmp ne ptr %10, null
  br i1 %11, label %12, label %21

12:                                               ; preds = %2
  %13 = load ptr, ptr %3, align 8
  %14 = load i8, ptr %13, align 1
  %15 = icmp ne i8 %14, 0
  br i1 %15, label %16, label %21

16:                                               ; preds = %12
  %17 = load ptr, ptr %3, align 8
  %18 = load i8, ptr %17, align 1
  %19 = sext i8 %18 to i32
  %20 = icmp eq i32 %19, 59
  br i1 %20, label %21, label %22

21:                                               ; preds = %16, %12, %2
  br label %183

22:                                               ; preds = %16
  br label %23

23:                                               ; preds = %22
  br label %24

24:                                               ; preds = %23
  %25 = load ptr, ptr %3, align 8
  store ptr %25, ptr %6, align 8
  br label %26

26:                                               ; preds = %67, %24
  %27 = load ptr, ptr %6, align 8
  %28 = icmp ne ptr %27, null
  br i1 %28, label %29, label %44

29:                                               ; preds = %26
  %30 = load ptr, ptr %6, align 8
  %31 = load i8, ptr %30, align 1
  %32 = sext i8 %31 to i32
  %33 = icmp ne i32 %32, 0
  br i1 %33, label %34, label %44

34:                                               ; preds = %29
  %35 = load ptr, ptr %6, align 8
  %36 = load i8, ptr %35, align 1
  %37 = sext i8 %36 to i32
  %38 = icmp ne i32 %37, 59
  br i1 %38, label %39, label %44

39:                                               ; preds = %34
  %40 = load ptr, ptr %6, align 8
  %41 = load i8, ptr %40, align 1
  %42 = sext i8 %41 to i32
  %43 = icmp ne i32 %42, 93
  br label %44

44:                                               ; preds = %39, %34, %29, %26
  %45 = phi i1 [ false, %34 ], [ false, %29 ], [ false, %26 ], [ %43, %39 ]
  br i1 %45, label %46, label %70

46:                                               ; preds = %44
  %47 = call ptr @__ctype_b_loc() #13
  %48 = load ptr, ptr %47, align 8
  %49 = load ptr, ptr %6, align 8
  %50 = load i8, ptr %49, align 1
  %51 = sext i8 %50 to i32
  %52 = sext i32 %51 to i64
  %53 = getelementptr inbounds i16, ptr %48, i64 %52
  %54 = load i16, ptr %53, align 2
  %55 = zext i16 %54 to i32
  %56 = and i32 %55, 2048
  %57 = icmp ne i32 %56, 0
  br i1 %57, label %58, label %65

58:                                               ; preds = %46
  %59 = load i32, ptr %9, align 4
  %60 = icmp ne i32 %59, 0
  br i1 %60, label %64, label %61

61:                                               ; preds = %58
  %62 = load i32, ptr %7, align 4
  %63 = add i32 %62, 1
  store i32 %63, ptr %7, align 4
  br label %64

64:                                               ; preds = %61, %58
  store i32 1, ptr %9, align 4
  br label %66

65:                                               ; preds = %46
  store i32 0, ptr %9, align 4
  br label %66

66:                                               ; preds = %65, %64
  br label %67

67:                                               ; preds = %66
  %68 = load ptr, ptr %6, align 8
  %69 = getelementptr inbounds i8, ptr %68, i32 1
  store ptr %69, ptr %6, align 8
  br label %26

70:                                               ; preds = %44
  %71 = load i32, ptr %7, align 4
  %72 = icmp eq i32 %71, 0
  br i1 %72, label %73, label %76

73:                                               ; preds = %70
  br label %74

74:                                               ; preds = %73
  br label %75

75:                                               ; preds = %74
  br label %183

76:                                               ; preds = %70
  br label %77

77:                                               ; preds = %76
  br label %78

78:                                               ; preds = %77
  %79 = load i32, ptr %7, align 4
  %80 = zext i32 %79 to i64
  %81 = call noalias ptr @calloc(i64 noundef %80, i64 noundef 8) #14
  store ptr %81, ptr %5, align 8
  %82 = icmp eq ptr %81, null
  br i1 %82, label %83, label %109

83:                                               ; preds = %78
  br label %84

84:                                               ; preds = %83
  br label %85

85:                                               ; preds = %84
  %86 = load i32, ptr @enable_error_stack, align 4
  %87 = icmp sgt i32 %86, 0
  br i1 %87, label %88, label %106

88:                                               ; preds = %85
  %89 = load i64, ptr @H5tools_ERR_STACK_g, align 8
  %90 = icmp sge i64 %89, 0
  br i1 %90, label %91, label %100

91:                                               ; preds = %88
  %92 = load i64, ptr @H5tools_ERR_CLS_g, align 8
  %93 = icmp sge i64 %92, 0
  br i1 %93, label %94, label %100

94:                                               ; preds = %91
  %95 = load i64, ptr @H5tools_ERR_STACK_g, align 8
  %96 = load i64, ptr @H5tools_ERR_CLS_g, align 8
  %97 = load i64, ptr @H5E_tools_g, align 8
  %98 = load i64, ptr @H5E_tools_min_info_id_g, align 8
  %99 = call i32 (i64, ptr, ptr, i32, i64, i64, i64, ptr, ...) @H5Epush2(i64 noundef %95, ptr noundef @.str.5, ptr noundef @__func__.parse_hsize_list, i32 noundef 209, i64 noundef %96, i64 noundef %97, i64 noundef %98, ptr noundef @.str.6)
  br label %105

100:                                              ; preds = %91, %88
  %101 = load ptr, ptr @stderr, align 8
  %102 = call i32 (ptr, ptr, ...) @fprintf(ptr noundef %101, ptr noundef @.str.6) #12
  %103 = load ptr, ptr @stderr, align 8
  %104 = call i32 (ptr, ptr, ...) @fprintf(ptr noundef %103, ptr noundef @.str.7) #12
  br label %105

105:                                              ; preds = %100, %94
  br label %106

106:                                              ; preds = %105, %85
  br label %107

107:                                              ; preds = %106
  br label %108

108:                                              ; preds = %107
  br label %109

109:                                              ; preds = %108, %78
  %110 = load ptr, ptr %3, align 8
  store ptr %110, ptr %6, align 8
  br label %111

111:                                              ; preds = %172, %109
  %112 = load i32, ptr %8, align 4
  %113 = load i32, ptr %7, align 4
  %114 = icmp ult i32 %112, %113
  br i1 %114, label %115, label %133

115:                                              ; preds = %111
  %116 = load ptr, ptr %6, align 8
  %117 = icmp ne ptr %116, null
  br i1 %117, label %118, label %133

118:                                              ; preds = %115
  %119 = load ptr, ptr %6, align 8
  %120 = load i8, ptr %119, align 1
  %121 = sext i8 %120 to i32
  %122 = icmp ne i32 %121, 0
  br i1 %122, label %123, label %133

123:                                              ; preds = %118
  %124 = load ptr, ptr %6, align 8
  %125 = load i8, ptr %124, align 1
  %126 = sext i8 %125 to i32
  %127 = icmp ne i32 %126, 59
  br i1 %127, label %128, label %133

128:                                              ; preds = %123
  %129 = load ptr, ptr %6, align 8
  %130 = load i8, ptr %129, align 1
  %131 = sext i8 %130 to i32
  %132 = icmp ne i32 %131, 93
  br label %133

133:                                              ; preds = %128, %123, %118, %115, %111
  %134 = phi i1 [ false, %123 ], [ false, %118 ], [ false, %115 ], [ false, %111 ], [ %132, %128 ]
  br i1 %134, label %135, label %175

135:                                              ; preds = %133
  %136 = call ptr @__ctype_b_loc() #13
  %137 = load ptr, ptr %136, align 8
  %138 = load ptr, ptr %6, align 8
  %139 = load i8, ptr %138, align 1
  %140 = sext i8 %139 to i32
  %141 = sext i32 %140 to i64
  %142 = getelementptr inbounds i16, ptr %137, i64 %141
  %143 = load i16, ptr %142, align 2
  %144 = zext i16 %143 to i32
  %145 = and i32 %144, 2048
  %146 = icmp ne i32 %145, 0
  br i1 %146, label %147, label %171

147:                                              ; preds = %135
  %148 = load ptr, ptr %6, align 8
  %149 = call i64 @strtoull(ptr noundef %148, ptr noundef null, i32 noundef 0) #12
  %150 = load ptr, ptr %5, align 8
  %151 = load i32, ptr %8, align 4
  %152 = add i32 %151, 1
  store i32 %152, ptr %8, align 4
  %153 = zext i32 %151 to i64
  %154 = getelementptr inbounds i64, ptr %150, i64 %153
  store i64 %149, ptr %154, align 8
  br label %155

155:                                              ; preds = %167, %147
  %156 = call ptr @__ctype_b_loc() #13
  %157 = load ptr, ptr %156, align 8
  %158 = load ptr, ptr %6, align 8
  %159 = load i8, ptr %158, align 1
  %160 = sext i8 %159 to i32
  %161 = sext i32 %160 to i64
  %162 = getelementptr inbounds i16, ptr %157, i64 %161
  %163 = load i16, ptr %162, align 2
  %164 = zext i16 %163 to i32
  %165 = and i32 %164, 2048
  %166 = icmp ne i32 %165, 0
  br i1 %166, label %167, label %170

167:                                              ; preds = %155
  %168 = load ptr, ptr %6, align 8
  %169 = getelementptr inbounds i8, ptr %168, i32 1
  store ptr %169, ptr %6, align 8
  br label %155

170:                                              ; preds = %155
  br label %171

171:                                              ; preds = %170, %135
  br label %172

172:                                              ; preds = %171
  %173 = load ptr, ptr %6, align 8
  %174 = getelementptr inbounds i8, ptr %173, i32 1
  store ptr %174, ptr %6, align 8
  br label %111

175:                                              ; preds = %133
  %176 = load ptr, ptr %5, align 8
  %177 = load ptr, ptr %4, align 8
  %178 = getelementptr inbounds %struct.subset_d, ptr %177, i32 0, i32 0
  store ptr %176, ptr %178, align 8
  %179 = load i32, ptr %7, align 4
  %180 = load ptr, ptr %4, align 8
  %181 = getelementptr inbounds %struct.subset_d, ptr %180, i32 0, i32 1
  store i32 %179, ptr %181, align 8
  br label %182

182:                                              ; preds = %175
  br label %183

183:                                              ; preds = %182, %75, %21
  ret void
}