; Function Attrs: nounwind uwtable
define void @parse_hsize_list(ptr noundef readonly %0, ptr noundef writeonly captures(none) %1) local_unnamed_addr #4 {
  %.not = icmp eq ptr %0, null
  br i1 %.not, label %59, label %3

3:                                                ; preds = %2
  %4 = load i8, ptr %0, align 1
  switch i8 %4, label %.preheader [
    i8 0, label %59
    i8 59, label %59
  ]

.preheader:                                       ; preds = %3, %6
  %5 = phi i8 [ %.pr, %6 ], [ %4, %3 ]
  %.042 = phi ptr [ %13, %6 ], [ %0, %3 ]
  %.040 = phi i32 [ %.2, %6 ], [ 0, %3 ]
  %.0 = phi i1 [ %.not60, %6 ], [ true, %3 ]
  switch i8 %5, label %6 [
    i8 0, label %.critedge
    i8 59, label %.critedge
    i8 93, label %.critedge
  ]

6:                                                ; preds = %.preheader
  %7 = tail call ptr @__ctype_b_loc() #24
  %8 = load ptr, ptr %7, align 8
  %9 = sext i8 %5 to i64
  %10 = getelementptr inbounds i16, ptr %8, i64 %9
  %11 = load i16, ptr %10, align 2
  %12 = and i16 %11, 2048
  %.not60 = icmp eq i16 %12, 0
  %not..not60 = xor i1 %.not60, true
  %narrow = and i1 %.0, %not..not60
  %spec.select = zext i1 %narrow to i32
  %.2 = add i32 %.040, %spec.select
  %13 = getelementptr inbounds nuw i8, ptr %.042, i64 1
  %.pr = load i8, ptr %13, align 1
  br label %.preheader

.critedge:                                        ; preds = %.preheader, %.preheader, %.preheader
  %14 = icmp eq i32 %.040, 0
  br i1 %14, label %59, label %15

15:                                               ; preds = %.critedge
  %16 = zext i32 %.040 to i64
  %17 = tail call noalias ptr @calloc(i64 noundef %16, i64 noundef 8) #25
  %18 = icmp eq ptr %17, null
  %19 = load i32, ptr @enable_error_stack, align 4
  %20 = icmp sgt i32 %19, 0
  %or.cond7 = select i1 %18, i1 %20, i1 false
  br i1 %or.cond7, label %21, label %.preheader64

21:                                               ; preds = %15
  %22 = load i64, ptr @H5tools_ERR_STACK_g, align 8
  %23 = icmp sgt i64 %22, -1
  %24 = load i64, ptr @H5tools_ERR_CLS_g, align 8
  %25 = icmp sgt i64 %24, -1
  %or.cond = select i1 %23, i1 %25, i1 false
  br i1 %or.cond, label %26, label %30

26:                                               ; preds = %21
  %27 = load i64, ptr @H5E_tools_g, align 8
  %28 = load i64, ptr @H5E_tools_min_info_id_g, align 8
  %29 = tail call i32 (i64, ptr, ptr, i32, i64, i64, i64, ptr, ...) @H5Epush2(i64 noundef %22, ptr noundef nonnull @.str.5, ptr noundef nonnull @__func__.parse_hsize_list, i32 noundef 209, i64 noundef %24, i64 noundef %27, i64 noundef %28, ptr noundef nonnull @.str.6) #23
  br label %.preheader64

30:                                               ; preds = %21
  %31 = load ptr, ptr @stderr, align 8
  %32 = tail call i64 @fwrite(ptr nonnull @.str.6, i64 40, i64 1, ptr %31) #26
  %33 = load ptr, ptr @stderr, align 8
  %fputc = tail call i32 @fputc(i32 10, ptr %33)
  br label %.preheader64

.preheader64:                                     ; preds = %30, %26, %15
  br label %34

34:                                               ; preds = %.preheader64, %.loopexit
  %.03863 = phi i32 [ %.139, %.loopexit ], [ 0, %.preheader64 ]
  %.14362 = phi ptr [ %56, %.loopexit ], [ %0, %.preheader64 ]
  %35 = load i8, ptr %.14362, align 1
  switch i8 %35, label %36 [
    i8 0, label %.critedge5
    i8 59, label %.critedge5
    i8 93, label %.critedge5
  ]

36:                                               ; preds = %34
  %37 = tail call ptr @__ctype_b_loc() #24
  %38 = load ptr, ptr %37, align 8
  %39 = sext i8 %35 to i64
  %40 = getelementptr inbounds i16, ptr %38, i64 %39
  %41 = load i16, ptr %40, align 2
  %42 = and i16 %41, 2048
  %.not58 = icmp eq i16 %42, 0
  br i1 %.not58, label %.loopexit, label %43

43:                                               ; preds = %36
  %44 = tail call i64 @strtoull(ptr noundef nonnull captures(none) %.14362, ptr noundef null, i32 noundef 0) #23
  %45 = zext i32 %.03863 to i64
  %46 = getelementptr inbounds nuw i64, ptr %17, i64 %45
  store i64 %44, ptr %46, align 8
  %47 = load ptr, ptr %37, align 8
  br label %48

48:                                               ; preds = %48, %43
  %.244 = phi ptr [ %.14362, %43 ], [ %54, %48 ]
  %49 = load i8, ptr %.244, align 1
  %50 = sext i8 %49 to i64
  %51 = getelementptr inbounds i16, ptr %47, i64 %50
  %52 = load i16, ptr %51, align 2
  %53 = and i16 %52, 2048
  %.not59 = icmp eq i16 %53, 0
  %54 = getelementptr inbounds nuw i8, ptr %.244, i64 1
  br i1 %.not59, label %.loopexit.loopexit, label %48

.loopexit.loopexit:                               ; preds = %48
  %55 = add nuw i32 %.03863, 1
  br label %.loopexit

.loopexit:                                        ; preds = %.loopexit.loopexit, %36
  %.3 = phi ptr [ %.14362, %36 ], [ %.244, %.loopexit.loopexit ]
  %.139 = phi i32 [ %.03863, %36 ], [ %55, %.loopexit.loopexit ]
  %56 = getelementptr inbounds nuw i8, ptr %.3, i64 1
  %57 = icmp ult i32 %.139, %.040
  br i1 %57, label %34, label %.critedge5

.critedge5:                                       ; preds = %34, %34, %34, %.loopexit
  store ptr %17, ptr %1, align 8
  %58 = getelementptr inbounds nuw i8, ptr %1, i64 8
  store i32 %.040, ptr %58, align 8
  br label %59

59:                                               ; preds = %3, %3, %.critedge, %2, %.critedge5
  ret void
}